target datalayout = "e-m:e-p270:32:32-p271:32:32-p272:64:64-i64:64-i128:128-f80:128-n8:16:32:64-S128"
target triple = "x86_64-pc-linux-gnu"

%struct.PROV_XOR_CTX = type { ptr }
%struct.key2any_ctx_st = type { ptr, i32, i32, ptr, ptr, ptr }

@.str.33 = private unnamed_addr constant [7 x i8] c"cipher\00", align 1
@.str.34 = private unnamed_addr constant [11 x i8] c"properties\00", align 1
@.str.35 = private unnamed_addr constant [16 x i8] c"save-parameters\00", align 1

; Function Attrs: nounwind uwtable
define internal i32 @key2any_set_ctx_params(ptr noundef %0, ptr noundef %1) #0 {
  %3 = alloca i32, align 4
  %4 = alloca ptr, align 8
  %5 = alloca ptr, align 8
  %6 = alloca ptr, align 8
  %7 = alloca ptr, align 8
  %8 = alloca ptr, align 8
  %9 = alloca ptr, align 8
  %10 = alloca ptr, align 8
  %11 = alloca ptr, align 8
  %12 = alloca ptr, align 8
  %13 = alloca i32, align 4
  store ptr %0, ptr %4, align 8, !tbaa !13
  store ptr %1, ptr %5, align 8, !tbaa !43
  call void @llvm.lifetime.start.p0(i64 8, ptr %6) #8
  %14 = load ptr, ptr %4, align 8, !tbaa !13
  store ptr %14, ptr %6, align 8, !tbaa !71
  call void @llvm.lifetime.start.p0(i64 8, ptr %7) #8
  %15 = load ptr, ptr %6, align 8, !tbaa !71
  %16 = getelementptr inbounds nuw %struct.key2any_ctx_st, ptr %15, i32 0, i32 0
  %17 = load ptr, ptr %16, align 8, !tbaa !73
  %18 = getelementptr inbounds nuw %struct.PROV_XOR_CTX, ptr %17, i32 0, i32 0
  %19 = load ptr, ptr %18, align 8, !tbaa !25
  store ptr %19, ptr %7, align 8, !tbaa !14
  call void @llvm.lifetime.start.p0(i64 8, ptr %8) #8
  %20 = load ptr, ptr %5, align 8, !tbaa !43
  %21 = call ptr @OSSL_PARAM_locate_const(ptr noundef %20, ptr noundef @.str.33)
  store ptr %21, ptr %8, align 8, !tbaa !43
  call void @llvm.lifetime.start.p0(i64 8, ptr %9) #8
  %22 = load ptr, ptr %5, align 8, !tbaa !43
  %23 = call ptr @OSSL_PARAM_locate_const(ptr noundef %22, ptr noundef @.str.34)
  store ptr %23, ptr %9, align 8, !tbaa !43
  call void @llvm.lifetime.start.p0(i64 8, ptr %10) #8
  %24 = load ptr, ptr %5, align 8, !tbaa !43
  %25 = call ptr @OSSL_PARAM_locate_const(ptr noundef %24, ptr noundef @.str.35)
  store ptr %25, ptr %10, align 8, !tbaa !43
  %26 = load ptr, ptr %8, align 8, !tbaa !43
  %27 = icmp ne ptr %26, null
  br i1 %27, label %28, label %67

28:                                               ; preds = %2
  call void @llvm.lifetime.start.p0(i64 8, ptr %11) #8
  store ptr null, ptr %11, align 8, !tbaa !30
  call void @llvm.lifetime.start.p0(i64 8, ptr %12) #8
  store ptr null, ptr %12, align 8, !tbaa !30
  %29 = load ptr, ptr %8, align 8, !tbaa !43
  %30 = call i32 @OSSL_PARAM_get_utf8_string_ptr(ptr noundef %29, ptr noundef %11)
  %31 = icmp ne i32 %30, 0
  br i1 %31, label %33, label %32

32:                                               ; preds = %28
  store i32 0, ptr %3, align 4
  store i32 1, ptr %13, align 4
  br label %64

33:                                               ; preds = %28
  %34 = load ptr, ptr %9, align 8, !tbaa !43
  %35 = icmp ne ptr %34, null
  br i1 %35, label %36, label %41

36:                                               ; preds = %33
  %37 = load ptr, ptr %9, align 8, !tbaa !43
  %38 = call i32 @OSSL_PARAM_get_utf8_string_ptr(ptr noundef %37, ptr noundef %12)
  %39 = icmp ne i32 %38, 0
  br i1 %39, label %41, label %40

40:                                               ; preds = %36
  store i32 0, ptr %3, align 4
  store i32 1, ptr %13, align 4
  br label %64

41:                                               ; preds = %36, %33
  %42 = load ptr, ptr %6, align 8, !tbaa !71
  %43 = getelementptr inbounds nuw %struct.key2any_ctx_st, ptr %42, i32 0, i32 3
  %44 = load ptr, ptr %43, align 8, !tbaa !77
  call void @EVP_CIPHER_free(ptr noundef %44)
  %45 = load ptr, ptr %6, align 8, !tbaa !71
  %46 = getelementptr inbounds nuw %struct.key2any_ctx_st, ptr %45, i32 0, i32 3
  store ptr null, ptr %46, align 8, !tbaa !77
  %47 = load ptr, ptr %11, align 8, !tbaa !30
  %48 = icmp ne ptr %47, null
  %49 = zext i1 %48 to i32
  %50 = load ptr, ptr %6, align 8, !tbaa !71
  %51 = getelementptr inbounds nuw %struct.key2any_ctx_st, ptr %50, i32 0, i32 2
  store i32 %49, ptr %51, align 4, !tbaa !78
  %52 = load ptr, ptr %11, align 8, !tbaa !30
  %53 = icmp ne ptr %52, null
  br i1 %53, label %54, label %63

54:                                               ; preds = %41
  %55 = load ptr, ptr %7, align 8, !tbaa !14
  %56 = load ptr, ptr %11, align 8, !tbaa !30
  %57 = load ptr, ptr %12, align 8, !tbaa !30
  %58 = call ptr @EVP_CIPHER_fetch(ptr noundef %55, ptr noundef %56, ptr noundef %57)
  %59 = load ptr, ptr %6, align 8, !tbaa !71
  %60 = getelementptr inbounds nuw %struct.key2any_ctx_st, ptr %59, i32 0, i32 3
  store ptr %58, ptr %60, align 8, !tbaa !77
  %61 = icmp eq ptr %58, null
  br i1 %61, label %62, label %63

62:                                               ; preds = %54
  store i32 0, ptr %3, align 4
  store i32 1, ptr %13, align 4
  br label %64

63:                                               ; preds = %54, %41
  store i32 0, ptr %13, align 4
  br label %64

64:                                               ; preds = %63, %62, %40, %32
  call void @llvm.lifetime.end.p0(i64 8, ptr %12) #8
  call void @llvm.lifetime.end.p0(i64 8, ptr %11) #8
  %65 = load i32, ptr %13, align 4
  switch i32 %65, label %79 [
    i32 0, label %66
  ]

66:                                               ; preds = %64
  br label %67

67:                                               ; preds = %66, %2
  %68 = load ptr, ptr %10, align 8, !tbaa !43
  %69 = icmp ne ptr %68, null
  br i1 %69, label %70, label %78

70:                                               ; preds = %67
  %71 = load ptr, ptr %10, align 8, !tbaa !43
  %72 = load ptr, ptr %6, align 8, !tbaa !71
  %73 = getelementptr inbounds nuw %struct.key2any_ctx_st, ptr %72, i32 0, i32 1
  %74 = call i32 @OSSL_PARAM_get_int(ptr noundef %71, ptr noundef %73)
  %75 = icmp ne i32 %74, 0
  br i1 %75, label %77, label %76

76:                                               ; preds = %70
  store i32 0, ptr %3, align 4
  store i32 1, ptr %13, align 4
  br label %79

77:                                               ; preds = %70
  br label %78

78:                                               ; preds = %77, %67
  store i32 1, ptr %3, align 4
  store i32 1, ptr %13, align 4
  br label %79

79:                                               ; preds = %78, %76, %64
  call void @llvm.lifetime.end.p0(i64 8, ptr %10) #8
  call void @llvm.lifetime.end.p0(i64 8, ptr %9) #8
  call void @llvm.lifetime.end.p0(i64 8, ptr %8) #8
  call void @llvm.lifetime.end.p0(i64 8, ptr %7) #8
  call void @llvm.lifetime.end.p0(i64 8, ptr %6) #8
  %80 = load i32, ptr %3, align 4
  ret i32 %80
}